target datalayout = "e-m:e-p270:32:32-p271:32:32-p272:64:64-i64:64-i128:128-f80:128-n8:16:32:64-S128"
target triple = "x86_64-pc-linux-gnu"

%"class.cv::xobjdetect::CvParams" = type { ptr, %"class.std::__cxx11::basic_string" }
%"class.std::__cxx11::basic_string" = type { %"struct.std::__cxx11::basic_string<char>::_Alloc_hider", i64, %union.anon }
%"struct.std::__cxx11::basic_string<char>::_Alloc_hider" = type { ptr }
%union.anon = type { i64, [8 x i8] }
%"class.cv::xobjdetect::CvFeatureParams" = type { %"class.cv::xobjdetect::CvParams", i32, i32 }

; Function Attrs: mustprogress nounwind uwtable
define hidden void @_ZN2cv10xobjdetect15CvFeatureParams4initERKS1_(ptr noundef nonnull align 8 dereferenceable(48) %0, ptr noundef nonnull align 8 dereferenceable(48) %1) unnamed_addr #8 align 2 {
  %3 = alloca ptr, align 8
  %4 = alloca ptr, align 8
  store ptr %0, ptr %3, align 8, !tbaa !48
  store ptr %1, ptr %4, align 8, !tbaa !48
  %5 = load ptr, ptr %3, align 8
  %6 = load ptr, ptr %4, align 8, !tbaa !48
  %7 = getelementptr inbounds nuw %"class.cv::xobjdetect::CvFeatureParams", ptr %6, i32 0, i32 1
  %8 = load i32, ptr %7, align 8, !tbaa !50
  %9 = getelementptr inbounds nuw %"class.cv::xobjdetect::CvFeatureParams", ptr %5, i32 0, i32 1
  store i32 %8, ptr %9, align 8, !tbaa !50
  %10 = load ptr, ptr %4, align 8, !tbaa !48
  %11 = getelementptr inbounds nuw %"class.cv::xobjdetect::CvFeatureParams", ptr %10, i32 0, i32 2
  %12 = load i32, ptr %11, align 4, !tbaa !55
  %13 = getelementptr inbounds nuw %"class.cv::xobjdetect::CvFeatureParams", ptr %5, i32 0, i32 2
  store i32 %12, ptr %13, align 4, !tbaa !55
  ret void
}