; Function Attrs: mustprogress nofree norecurse nosync nounwind willreturn memory(argmem: readwrite) uwtable
define hidden void @_ZN2cv10xobjdetect15CvFeatureParams4initERKS1_(ptr noundef nonnull writeonly align 8 captures(none) dereferenceable(48) initializes((40, 48)) %0, ptr noundef nonnull readonly align 8 captures(none) dereferenceable(48) %1) unnamed_addr #7 align 2 {
  %3 = getelementptr inbounds nuw i8, ptr %1, i64 40
  %4 = load i32, ptr %3, align 8, !tbaa !51
  %5 = getelementptr inbounds nuw i8, ptr %0, i64 40
  store i32 %4, ptr %5, align 8, !tbaa !51
  %6 = getelementptr inbounds nuw i8, ptr %1, i64 44
  %7 = load i32, ptr %6, align 4, !tbaa !54
  %8 = getelementptr inbounds nuw i8, ptr %0, i64 44
  store i32 %7, ptr %8, align 4, !tbaa !54
  ret void
}